; Function Attrs: nounwind sspstrong uwtable
define dso_local void @tcg_gen_gvec_or(i32 noundef %0, i32 noundef %1, i32 noundef %2, i32 noundef %3, i32 noundef %4, i32 noundef %5) local_unnamed_addr #2 {
  %7 = icmp eq i32 %2, %3
  br i1 %7, label %8, label %26

8:                                                ; preds = %6
  %.not.i = icmp eq i32 %1, %2
  br i1 %.not.i, label %10, label %9

9:                                                ; preds = %8
  tail call void @tcg_gen_gvec_2(i32 noundef %1, i32 noundef %2, i32 noundef %4, i32 noundef %5, ptr noundef nonnull @tcg_gen_gvec_mov.g)
  br label %tcg_gen_gvec_mov.exit

10:                                               ; preds = %8
  switch i32 %4, label %13 [
    i32 8, label %11
    i32 16, label %11
    i32 32, label %11
  ]

11:                                               ; preds = %10, %10, %10
  %12 = icmp ule i32 %4, %5
  br label %check_size_align.exit.i

13:                                               ; preds = %10
  %14 = icmp eq i32 %4, %5
  br label %check_size_align.exit.i

check_size_align.exit.i:                          ; preds = %13, %11
  %.sink.i.i = phi i1 [ %12, %11 ], [ %14, %13 ]
  tail call void @llvm.assume(i1 %.sink.i.i)
  %15 = icmp ult i32 %5, 2049
  tail call void @llvm.assume(i1 %15)
  %16 = icmp samesign ugt i32 %5, 15
  %17 = select i1 %16, i32 15, i32 7
  %18 = and i32 %17, %5
  %19 = icmp eq i32 %18, 0
  tail call void @llvm.assume(i1 %19)
  %20 = and i32 %17, %2
  %21 = icmp eq i32 %20, 0
  tail call void @llvm.assume(i1 %21)
  %22 = icmp ult i32 %4, %5
  br i1 %22, label %23, label %tcg_gen_gvec_mov.exit

23:                                               ; preds = %check_size_align.exit.i
  %24 = add i32 %4, %2
  %25 = sub nuw nsw i32 %5, %4
  tail call fastcc void @do_dup(i32 noundef 0, i32 noundef %24, i32 noundef %25, i32 noundef %25, ptr noundef null, ptr noundef null, i64 noundef 0)
  br label %tcg_gen_gvec_mov.exit

26:                                               ; preds = %6
  tail call void @tcg_gen_gvec_3(i32 noundef %1, i32 noundef %2, i32 noundef %3, i32 noundef %4, i32 noundef %5, ptr noundef nonnull @tcg_gen_gvec_or.g)
  br label %tcg_gen_gvec_mov.exit

tcg_gen_gvec_mov.exit:                            ; preds = %23, %check_size_align.exit.i, %9, %26
  ret void
}